target datalayout = "e-m:e-p270:32:32-p271:32:32-p272:64:64-i64:64-i128:128-f80:128-n8:16:32:64-S128"
target triple = "x86_64-unknown-linux-gnu"

%"class.hermes::Type" = type { i16, i16 }
%"class.hermes::UnaryOperatorInst" = type { %"class.hermes::SingleOperandInst.base", i32 }
%"class.hermes::SingleOperandInst.base" = type { %"class.hermes::Instruction.base" }
%"class.hermes::Instruction.base" = type <{ %"class.llvh::ilist_node_with_parent", %"class.hermes::Value", ptr, %"class.llvh::SmallVector.0", ptr, %"class.llvh::SMLoc", i32 }>
%"class.llvh::ilist_node_with_parent" = type { %"class.llvh::ilist_node" }
%"class.llvh::ilist_node" = type { %"class.llvh::ilist_node_impl" }
%"class.llvh::ilist_node_impl" = type { %"class.llvh::ilist_node_base" }
%"class.llvh::ilist_node_base" = type { ptr, ptr }
%"class.hermes::Value" = type { i8, %"class.hermes::Type", %"class.llvh::SmallVector" }
%"class.llvh::SmallVector" = type { %"class.llvh::SmallVectorImpl", %"struct.llvh::SmallVectorStorage" }
%"class.llvh::SmallVectorImpl" = type { %"class.llvh::SmallVectorTemplateBase" }
%"class.llvh::SmallVectorTemplateBase" = type { %"class.llvh::SmallVectorTemplateCommon" }
%"class.llvh::SmallVectorTemplateCommon" = type { %"class.llvh::SmallVectorBase" }
%"class.llvh::SmallVectorBase" = type { ptr, i32, i32 }
%"struct.llvh::SmallVectorStorage" = type { [2 x %"struct.llvh::AlignedCharArrayUnion"] }
%"struct.llvh::AlignedCharArrayUnion" = type { %"struct.llvh::AlignedCharArray" }
%"struct.llvh::AlignedCharArray" = type { [8 x i8] }
%"class.llvh::SmallVector.0" = type { %"class.llvh::SmallVectorImpl.1", %"struct.llvh::SmallVectorStorage.4" }
%"class.llvh::SmallVectorImpl.1" = type { %"class.llvh::SmallVectorTemplateBase.2" }
%"class.llvh::SmallVectorTemplateBase.2" = type { %"class.llvh::SmallVectorTemplateCommon.3" }
%"class.llvh::SmallVectorTemplateCommon.3" = type { %"class.llvh::SmallVectorBase" }
%"struct.llvh::SmallVectorStorage.4" = type { [2 x %"struct.llvh::AlignedCharArrayUnion.5"] }
%"struct.llvh::AlignedCharArrayUnion.5" = type { %"struct.llvh::AlignedCharArray.6" }
%"struct.llvh::AlignedCharArray.6" = type { [16 x i8] }
%"class.llvh::SMLoc" = type { ptr }

; Function Attrs: mustprogress nounwind uwtable
define linkonce_odr hidden noundef zeroext i1 @_ZNK6hermes4Type11isPrimitiveEv(ptr noundef nonnull align 2 dereferenceable(4) %this) #0 comdat align 2 {
entry:
  %this.addr = alloca ptr, align 8
  store ptr %this, ptr %this.addr, align 8
  %this1 = load ptr, ptr %this.addr, align 8
  %bitmask_ = getelementptr inbounds %"class.hermes::Type", ptr %this1, i32 0, i32 0
  %0 = load i16, ptr %bitmask_, align 2
  %tobool = icmp ne i16 %0, 0
  br i1 %tobool, label %land.rhs, label %land.end

land.rhs:                                         ; preds = %entry
  %bitmask_2 = getelementptr inbounds %"class.hermes::Type", ptr %this1, i32 0, i32 0
  %1 = load i16, ptr %bitmask_2, align 2
  %conv = zext i16 %1 to i32
  %and = and i32 %conv, -127
  %tobool3 = icmp ne i32 %and, 0
  %lnot = xor i1 %tobool3, true
  br label %land.end

land.end:                                         ; preds = %land.rhs, %entry
  %2 = phi i1 [ false, %entry ], [ %lnot, %land.rhs ]
  ret i1 %2
}

; Function Attrs: mustprogress nounwind uwtable
define hidden noundef zeroext i1 @_ZN6hermes16isSideEffectFreeENS_4TypeE(i32 %T.coerce) #0 {
entry:
  %T = alloca %"class.hermes::Type", align 2
  store i32 %T.coerce, ptr %T, align 2
  %call = call noundef zeroext i1 @_ZNK6hermes4Type11isPrimitiveEv(ptr noundef nonnull align 2 dereferenceable(4) %T)
  ret i1 %call
}

; Function Attrs: mustprogress nounwind uwtable
define linkonce_odr hidden i32 @_ZNK6hermes5Value7getTypeEv(ptr noundef nonnull align 8 dereferenceable(40) %this) #0 comdat align 2 {
entry:
  %retval = alloca %"class.hermes::Type", align 2
  %this.addr = alloca ptr, align 8
  store ptr %this, ptr %this.addr, align 8
  %this1 = load ptr, ptr %this.addr, align 8
  %valueType = getelementptr inbounds %"class.hermes::Value", ptr %this1, i32 0, i32 1
  call void @llvm.memcpy.p0.p0.i64(ptr align 2 %retval, ptr align 2 %valueType, i64 4, i1 false)
  %0 = load i32, ptr %retval, align 2
  ret i32 %0
}

; Function Attrs: mustprogress nounwind uwtable
define linkonce_odr hidden noundef ptr @_ZNK6hermes17SingleOperandInst16getSingleOperandEv(ptr noundef nonnull align 8 dereferenceable(132) %this) #0 comdat align 2 {
entry:
  %this.addr = alloca ptr, align 8
  store ptr %this, ptr %this.addr, align 8
  %this1 = load ptr, ptr %this.addr, align 8
  %call = call noundef ptr @_ZNK6hermes11Instruction10getOperandEj(ptr noundef nonnull align 8 dereferenceable(132) %this1, i32 noundef 0)
  ret ptr %call
}

; Function Attrs: mustprogress nounwind uwtable
define linkonce_odr hidden noundef i32 @_ZNK6hermes17UnaryOperatorInst15getOperatorKindEv(ptr noundef nonnull align 8 dereferenceable(136) %this) #0 comdat align 2 {
entry:
  %this.addr = alloca ptr, align 8
  store ptr %this, ptr %this.addr, align 8
  %this1 = load ptr, ptr %this.addr, align 8
  %op_ = getelementptr inbounds %"class.hermes::UnaryOperatorInst", ptr %this1, i32 0, i32 1
  %0 = load i32, ptr %op_, align 4
  ret i32 %0
}

; Function Attrs: mustprogress nounwind uwtable
define hidden noundef i32 @_ZN6hermes17UnaryOperatorInst13getSideEffectEv(ptr noundef nonnull align 8 dereferenceable(136) %this) #0 align 2 {
entry:
  %retval = alloca i32, align 4
  %this.addr = alloca ptr, align 8
  %agg.tmp = alloca %"class.hermes::Type", align 2
  store ptr %this, ptr %this.addr, align 8
  %this1 = load ptr, ptr %this.addr, align 8
  %call = call noundef i32 @_ZNK6hermes17UnaryOperatorInst15getOperatorKindEv(ptr noundef nonnull align 8 dereferenceable(136) %this1)
  %cmp = icmp eq i32 %call, 0
  br i1 %cmp, label %if.then, label %if.end

if.then:                                          ; preds = %entry
  store i32 3, ptr %retval, align 4
  br label %return

if.end:                                           ; preds = %entry
  %call2 = call noundef ptr @_ZNK6hermes17SingleOperandInst16getSingleOperandEv(ptr noundef nonnull align 8 dereferenceable(132) %this1)
  %call3 = call i32 @_ZNK6hermes5Value7getTypeEv(ptr noundef nonnull align 8 dereferenceable(40) %call2)
  store i32 %call3, ptr %agg.tmp, align 2
  %0 = load i32, ptr %agg.tmp, align 2
  %call4 = call noundef zeroext i1 @_ZN6hermes16isSideEffectFreeENS_4TypeE(i32 %0)
  br i1 %call4, label %if.then5, label %if.end6

if.then5:                                         ; preds = %if.end
  store i32 0, ptr %retval, align 4
  br label %return

if.end6:                                          ; preds = %if.end
  %call7 = call noundef i32 @_ZNK6hermes17UnaryOperatorInst15getOperatorKindEv(ptr noundef nonnull align 8 dereferenceable(136) %this1)
  switch i32 %call7, label %sw.default [
    i32 1, label %sw.bb
    i32 2, label %sw.bb
  ]

sw.bb:                                            ; preds = %if.end6, %if.end6
  store i32 0, ptr %retval, align 4
  br label %return

sw.default:                                       ; preds = %if.end6
  br label %sw.epilog

sw.epilog:                                        ; preds = %sw.default
  store i32 3, ptr %retval, align 4
  br label %return

return:                                           ; preds = %sw.epilog, %sw.bb, %if.then5, %if.then
  %1 = load i32, ptr %retval, align 4
  ret i32 %1
}