; Function Attrs: mustprogress nounwind uwtable
define hidden noundef range(i32 0, 4) i32 @_ZN6hermes17UnaryOperatorInst13getSideEffectEv(ptr noundef nonnull align 8 dereferenceable(136) %this) local_unnamed_addr #0 align 2 {
entry:
  %op_.i = getelementptr inbounds nuw i8, ptr %this, i64 132
  %0 = load i32, ptr %op_.i, align 4
  %cmp = icmp eq i32 %0, 0
  br i1 %cmp, label %return, label %if.end

if.end:                                           ; preds = %entry
  %call.i = tail call noundef ptr @_ZNK6hermes11Instruction10getOperandEj(ptr noundef nonnull align 8 dereferenceable(132) %this, i32 noundef 0) #15
  %valueType.i = getelementptr inbounds nuw i8, ptr %call.i, i64 2
  %retval.sroa.0.0.copyload.i = load i32, ptr %valueType.i, align 2
  %T.sroa.0.0.extract.trunc.i = trunc i32 %retval.sroa.0.0.copyload.i to i16
  %tobool.not.i.i = icmp ne i16 %T.sroa.0.0.extract.trunc.i, 0
  %1 = and i16 %T.sroa.0.0.extract.trunc.i, -127
  %tobool3.not.i.i = icmp eq i16 %1, 0
  %2 = and i1 %tobool.not.i.i, %tobool3.not.i.i
  br i1 %2, label %return, label %if.end6

if.end6:                                          ; preds = %if.end
  %3 = load i32, ptr %op_.i, align 4
  %call7.off = add i32 %3, -1
  %switch = icmp ult i32 %call7.off, 2
  %. = select i1 %switch, i32 0, i32 3
  br label %return

return:                                           ; preds = %if.end6, %if.end, %entry
  %retval.0 = phi i32 [ 3, %entry ], [ 0, %if.end ], [ %., %if.end6 ]
  ret i32 %retval.0
}